; Function Attrs: nofree nounwind uwtable
define noalias noundef ptr @Abc_NtkSaveCopy(ptr noundef readonly captures(none) %0) local_unnamed_addr #7 {
  %2 = getelementptr i8, ptr %0, i64 32
  %.val13 = load ptr, ptr %2, align 8
  %3 = getelementptr i8, ptr %.val13, i64 4
  %.val13.val = load i32, ptr %3, align 4
  %4 = tail call noalias dereferenceable_or_null(16) ptr @malloc(i64 noundef 16) #30
  %5 = add i32 %.val13.val, -1
  %or.cond.i.i = icmp ult i32 %5, 7
  %spec.store.select.i.i = select i1 %or.cond.i.i, i32 8, i32 %.val13.val
  store i32 %spec.store.select.i.i, ptr %4, align 8
  %.not.i.i = icmp eq i32 %spec.store.select.i.i, 0
  br i1 %.not.i.i, label %Vec_PtrStart.exit, label %6

6:                                                ; preds = %1
  %7 = sext i32 %spec.store.select.i.i to i64
  %8 = shl nsw i64 %7, 3
  %9 = tail call noalias ptr @malloc(i64 noundef %8) #30
  br label %Vec_PtrStart.exit

Vec_PtrStart.exit:                                ; preds = %1, %6
  %.val = phi ptr [ %9, %6 ], [ null, %1 ]
  %10 = getelementptr inbounds nuw i8, ptr %4, i64 4
  %11 = getelementptr inbounds nuw i8, ptr %4, i64 8
  store ptr %.val, ptr %11, align 8
  store i32 %.val13.val, ptr %10, align 4
  %12 = sext i32 %.val13.val to i64
  %13 = shl nsw i64 %12, 3
  tail call void @llvm.memset.p0.i64(ptr align 8 %.val, i8 0, i64 %13, i1 false)
  %14 = icmp sgt i32 %.val13.val, 0
  br i1 %14, label %.lr.ph.preheader, label %.critedge

.lr.ph.preheader:                                 ; preds = %Vec_PtrStart.exit
  %.phi.trans.insert = getelementptr i8, ptr %.val13, i64 8
  %.val12.val.pre = load ptr, ptr %.phi.trans.insert, align 8
  br label %.lr.ph

.lr.ph:                                           ; preds = %.lr.ph.preheader, %22
  %indvars.iv = phi i64 [ 0, %.lr.ph.preheader ], [ %indvars.iv.next, %22 ]
  %15 = getelementptr inbounds nuw ptr, ptr %.val12.val.pre, i64 %indvars.iv
  %16 = load ptr, ptr %15, align 8
  %17 = icmp eq ptr %16, null
  br i1 %17, label %22, label %18

18:                                               ; preds = %.lr.ph
  %19 = getelementptr inbounds nuw i8, ptr %16, i64 64
  %20 = load ptr, ptr %19, align 8
  %21 = getelementptr inbounds nuw ptr, ptr %.val, i64 %indvars.iv
  store ptr %20, ptr %21, align 8
  br label %22

22:                                               ; preds = %18, %.lr.ph
  %indvars.iv.next = add nuw nsw i64 %indvars.iv, 1
  %23 = icmp slt i64 %indvars.iv.next, %12
  br i1 %23, label %.lr.ph, label %.critedge, !llvm.loop !36

.critedge:                                        ; preds = %22, %Vec_PtrStart.exit
  ret ptr %4
}